target datalayout = "e-m:e-p270:32:32-p271:32:32-p272:64:64-i64:64-i128:128-f80:128-n8:16:32:64-S128"
target triple = "x86_64-pc-linux-gnu"

%class.QModelIndex = type { i32, i32, i64, ptr }
%class.QFlags = type { i32 }

; Function Attrs: inlinehint mustprogress nounwind null_pointer_is_valid sspstrong uwtable
define linkonce_odr noundef align 4 dereferenceable(4) ptr @_ZN6QFlagsIN2Qt8ItemFlagEEoRES1_(ptr noundef align 4 dereferenceable_or_null(4) %0, i32 noundef %1) #2 comdat align 2 {
  %3 = alloca ptr, align 8
  %4 = alloca i32, align 4
  store ptr %0, ptr %3, align 8
  store i32 %1, ptr %4, align 4
  %5 = load ptr, ptr %3, align 8
  %6 = load i32, ptr %4, align 4
  %7 = getelementptr inbounds nuw %class.QFlags, ptr %5, i32 0, i32 0
  %8 = load i32, ptr %7, align 4
  %9 = or i32 %8, %6
  store i32 %9, ptr %7, align 4
  ret ptr %5
}

; Function Attrs: inlinehint mustprogress nounwind null_pointer_is_valid sspstrong uwtable
define linkonce_odr noundef i32 @_ZNK11QModelIndex6columnEv(ptr noundef align 8 dereferenceable_or_null(24) %0) #2 comdat align 2 {
  %2 = alloca ptr, align 8
  store ptr %0, ptr %2, align 8
  %3 = load ptr, ptr %2, align 8
  %4 = getelementptr inbounds nuw %class.QModelIndex, ptr %3, i32 0, i32 1
  %5 = load i32, ptr %4, align 4
  ret i32 %5
}

; Function Attrs: inlinehint mustprogress nounwind null_pointer_is_valid sspstrong uwtable
define linkonce_odr void @_ZN6QFlagsIN2Qt8ItemFlagEEC2Ev(ptr noundef align 4 dereferenceable_or_null(4) %0) unnamed_addr #2 comdat align 2 {
  %2 = alloca ptr, align 8
  store ptr %0, ptr %2, align 8
  %3 = load ptr, ptr %2, align 8
  %4 = getelementptr inbounds nuw %class.QFlags, ptr %3, i32 0, i32 0
  store i32 0, ptr %4, align 4
  ret void
}

; Function Attrs: inlinehint mustprogress nounwind null_pointer_is_valid sspstrong uwtable
define linkonce_odr noundef zeroext i1 @_ZNK11QModelIndex7isValidEv(ptr noundef align 8 dereferenceable_or_null(24) %0) #2 comdat align 2 {
  %2 = alloca ptr, align 8
  store ptr %0, ptr %2, align 8
  %3 = load ptr, ptr %2, align 8
  %4 = getelementptr inbounds nuw %class.QModelIndex, ptr %3, i32 0, i32 0
  %5 = load i32, ptr %4, align 8
  %6 = icmp sge i32 %5, 0
  br i1 %6, label %7, label %15

7:                                                ; preds = %1
  %8 = getelementptr inbounds nuw %class.QModelIndex, ptr %3, i32 0, i32 1
  %9 = load i32, ptr %8, align 4
  %10 = icmp sge i32 %9, 0
  br i1 %10, label %11, label %15

11:                                               ; preds = %7
  %12 = getelementptr inbounds nuw %class.QModelIndex, ptr %3, i32 0, i32 3
  %13 = load ptr, ptr %12, align 8
  %14 = icmp ne ptr %13, null
  br label %15

15:                                               ; preds = %11, %7, %1
  %16 = phi i1 [ false, %7 ], [ false, %1 ], [ %14, %11 ]
  ret i1 %16
}

; Function Attrs: mustprogress null_pointer_is_valid sspstrong uwtable
define i32 @_ZNK21EnabledProtocolsModel5flagsERK11QModelIndex(ptr noundef align 8 dereferenceable_or_null(24) %0, ptr noundef align 8 dereferenceable(24) %1) unnamed_addr #0 align 2 {
  %3 = alloca %class.QFlags, align 4
  %4 = alloca ptr, align 8
  %5 = alloca ptr, align 8
  store ptr %0, ptr %4, align 8
  store ptr %1, ptr %5, align 8
  %6 = load ptr, ptr %4, align 8
  %7 = load ptr, ptr %5, align 8
  %8 = call noundef zeroext i1 @_ZNK11QModelIndex7isValidEv(ptr noundef align 8 dereferenceable_or_null(24) %7) #20
  br i1 %8, label %10, label %9

9:                                                ; preds = %2
  call void @_ZN6QFlagsIN2Qt8ItemFlagEEC2Ev(ptr noundef align 4 dereferenceable_or_null(4) %3) #20
  br label %20

10:                                               ; preds = %2
  %11 = load ptr, ptr %5, align 8
  %12 = call i32 @_ZNK18QAbstractItemModel5flagsERK11QModelIndex(ptr noundef align 8 dereferenceable_or_null(16) %6, ptr noundef align 8 dereferenceable(24) %11)
  %13 = getelementptr inbounds nuw %class.QFlags, ptr %3, i32 0, i32 0
  store i32 %12, ptr %13, align 4
  %14 = load ptr, ptr %5, align 8
  %15 = call noundef i32 @_ZNK11QModelIndex6columnEv(ptr noundef align 8 dereferenceable_or_null(24) %14) #20
  switch i32 %15, label %18 [
    i32 0, label %16
  ]

16:                                               ; preds = %10
  %17 = call noundef align 4 dereferenceable(4) ptr @_ZN6QFlagsIN2Qt8ItemFlagEEoRES1_(ptr noundef align 4 dereferenceable_or_null(4) %3, i32 noundef 16) #20
  br label %19

18:                                               ; preds = %10
  br label %19

19:                                               ; preds = %18, %16
  br label %20

20:                                               ; preds = %19, %9
  %21 = getelementptr inbounds nuw %class.QFlags, ptr %3, i32 0, i32 0
  %22 = load i32, ptr %21, align 4
  ret i32 %22
}