; Function Attrs: mustprogress null_pointer_is_valid sspstrong uwtable
define i32 @_ZNK21EnabledProtocolsModel5flagsERK11QModelIndex(ptr noundef align 8 dereferenceable_or_null(24) %0, ptr noundef align 8 dereferenceable(24) %1) unnamed_addr #4 align 2 {
  %3 = load i32, ptr %1, align 8
  %4 = icmp sgt i32 %3, -1
  %5 = getelementptr inbounds nuw i8, ptr %1, i64 4
  %6 = load i32, ptr %5, align 4
  %7 = icmp sgt i32 %6, -1
  %or.cond = select i1 %4, i1 %7, i1 false
  %8 = getelementptr inbounds nuw i8, ptr %1, i64 16
  %9 = load ptr, ptr %8, align 8
  %10 = icmp ne ptr %9, null
  %or.cond9 = select i1 %or.cond, i1 %10, i1 false
  br i1 %or.cond9, label %11, label %_ZNK11QModelIndex7isValidEv.exit.thread

11:                                               ; preds = %2
  %12 = tail call i32 @_ZNK18QAbstractItemModel5flagsERK11QModelIndex(ptr noundef align 8 dereferenceable_or_null(16) %0, ptr noundef align 8 dereferenceable(24) %1)
  %13 = load i32, ptr %5, align 4
  %cond = icmp eq i32 %13, 0
  %14 = or i32 %12, 16
  %spec.select = select i1 %cond, i32 %14, i32 %12
  br label %_ZNK11QModelIndex7isValidEv.exit.thread

_ZNK11QModelIndex7isValidEv.exit.thread:          ; preds = %11, %2
  %.sroa.0.0 = phi i32 [ 0, %2 ], [ %spec.select, %11 ]
  ret i32 %.sroa.0.0
}